target datalayout = "e-m:e-p270:32:32-p271:32:32-p272:64:64-i64:64-i128:128-f80:128-n8:16:32:64-S128"
target triple = "x86_64-pc-linux-gnu"

%struct.Cec2_Man_t_ = type { ptr, ptr, ptr, ptr, ptr, ptr, ptr, ptr, ptr, ptr, ptr, i32, i32, i32, i32, i64, i64, i64, i64, i64, i64, i64 }

; Function Attrs: nounwind uwtable
define i32 @Cec2_ObjGetCnfVar(ptr noundef %0, i32 noundef %1) #0 {
  %3 = alloca ptr, align 8
  %4 = alloca i32, align 4
  store ptr %0, ptr %3, align 8
  store i32 %1, ptr %4, align 4
  %5 = load ptr, ptr %3, align 8
  %6 = getelementptr inbounds %struct.Cec2_Man_t_, ptr %5, i32 0, i32 2
  %7 = load ptr, ptr %6, align 8
  %8 = load i32, ptr %4, align 4
  %9 = load ptr, ptr %3, align 8
  %10 = getelementptr inbounds %struct.Cec2_Man_t_, ptr %9, i32 0, i32 4
  %11 = load ptr, ptr %10, align 8
  %12 = load ptr, ptr %3, align 8
  %13 = getelementptr inbounds %struct.Cec2_Man_t_, ptr %12, i32 0, i32 5
  %14 = load ptr, ptr %13, align 8
  %15 = load ptr, ptr %3, align 8
  %16 = getelementptr inbounds %struct.Cec2_Man_t_, ptr %15, i32 0, i32 3
  %17 = load ptr, ptr %16, align 8
  %18 = call i32 @Gia_ObjGetCnfVar(ptr noundef %7, i32 noundef %8, ptr noundef %11, ptr noundef %14, ptr noundef %17)
  ret i32 %18
}