; Function Attrs: nounwind uwtable
define i32 @Cec2_ObjGetCnfVar(ptr noundef readonly captures(none) %0, i32 noundef %1) local_unnamed_addr #2 {
  %3 = getelementptr inbounds nuw i8, ptr %0, i64 16
  %4 = load ptr, ptr %3, align 8
  %5 = getelementptr inbounds nuw i8, ptr %0, i64 32
  %6 = load ptr, ptr %5, align 8
  %7 = getelementptr inbounds nuw i8, ptr %0, i64 40
  %8 = load ptr, ptr %7, align 8
  %9 = getelementptr inbounds nuw i8, ptr %0, i64 24
  %10 = load ptr, ptr %9, align 8
  %11 = tail call i32 @Gia_ObjGetCnfVar(ptr noundef %4, i32 noundef %1, ptr noundef %6, ptr noundef %8, ptr noundef %10)
  ret i32 %11
}